; Function Attrs: mustprogress nofree norecurse nosync nounwind willreturn memory(argmem: read) uwtable
define internal noundef signext range(i8 0, 2) i8 @_ZL19utf8IteratorHasNextP13UCharIterator(ptr noundef readonly captures(none) %0) #7 {
  %2 = getelementptr inbounds nuw i8, ptr %0, i64 12
  %3 = load i32, ptr %2, align 4, !tbaa !27
  %4 = getelementptr inbounds nuw i8, ptr %0, i64 20
  %5 = load i32, ptr %4, align 4, !tbaa !13
  %6 = icmp slt i32 %3, %5
  br i1 %6, label %12, label %7

7:                                                ; preds = %1
  %8 = getelementptr inbounds nuw i8, ptr %0, i64 24
  %9 = load i32, ptr %8, align 8, !tbaa !39
  %10 = icmp ne i32 %9, 0
  %11 = zext i1 %10 to i8
  br label %12

12:                                               ; preds = %7, %1
  %13 = phi i8 [ 1, %1 ], [ %11, %7 ]
  ret i8 %13
}